target datalayout = "e-m:e-p270:32:32-p271:32:32-p272:64:64-i64:64-i128:128-f80:128-n8:16:32:64-S128"
target triple = "x86_64-unknown-linux-gnu"

%"class.arrow::util::tracing::Span" = type { %"class.std::unique_ptr.14" }
%"class.std::unique_ptr.14" = type { %"struct.std::__uniq_ptr_data.15" }
%"struct.std::__uniq_ptr_data.15" = type { %"class.std::__uniq_ptr_impl.16" }
%"class.std::__uniq_ptr_impl.16" = type { %"class.std::tuple.17" }
%"class.std::tuple.17" = type { %"struct.std::_Tuple_impl.18" }
%"struct.std::_Tuple_impl.18" = type { %"struct.std::_Head_base.21" }
%"struct.std::_Head_base.21" = type { ptr }
%"class.arrow::Status" = type { ptr }
%"class.std::__cxx11::basic_string" = type { %"struct.std::__cxx11::basic_string<char>::_Alloc_hider", i64, %union.anon }
%"struct.std::__cxx11::basic_string<char>::_Alloc_hider" = type { ptr }
%union.anon = type { i64, [8 x i8] }
%"class.std::basic_string_view" = type { i64, ptr }
%"class.arrow::util::AsyncTaskScheduler::Task" = type { ptr, %"class.arrow::util::tracing::Span" }
%"class.std::optional.227" = type { %"struct.std::_Optional_base.228" }
%"struct.std::_Optional_base.228" = type { %"struct.std::_Optional_payload.230" }
%"struct.std::_Optional_payload.230" = type { %"struct.std::_Optional_payload.base.234", [7 x i8] }
%"struct.std::_Optional_payload.base.234" = type { %"struct.std::_Optional_payload_base.base.233" }
%"struct.std::_Optional_payload_base.base.233" = type <{ %"union.std::_Optional_payload_base<std::__cxx11::basic_string<char>>::_Storage", i8 }>
%"union.std::_Optional_payload_base<std::__cxx11::basic_string<char>>::_Storage" = type { %"class.std::__cxx11::basic_string" }
%class.anon.255 = type { %"class.arrow::Status" }
%"struct.arrow::util::AsyncTaskScheduler::SimpleTask.264" = type { %"class.arrow::util::AsyncTaskScheduler::Task", %class.anon.255, %"class.std::basic_string_view", %"class.std::optional.227" }

; Function Attrs: mustprogress nounwind uwtable
define internal { i64, ptr } @_ZNK5arrow4util18AsyncTaskScheduler10SimpleTaskIZNS0_12_GLOBAL__N_118AsyncTaskGroupImplD1EvEUlvE_E4nameEv(ptr noundef nonnull align 8 dereferenceable(80) %this) unnamed_addr #2 align 2 {
entry:
  %retval = alloca %"class.std::basic_string_view", align 8
  %this.addr = alloca ptr, align 8
  store ptr %this, ptr %this.addr, align 8
  %this1 = load ptr, ptr %this.addr, align 8
  %name_ = getelementptr inbounds %"struct.arrow::util::AsyncTaskScheduler::SimpleTask.264", ptr %this1, i32 0, i32 2
  call void @llvm.memcpy.p0.p0.i64(ptr align 8 %retval, ptr align 8 %name_, i64 16, i1 false)
  %0 = load { i64, ptr }, ptr %retval, align 8
  ret { i64, ptr } %0
}